
lab9.elf:     file format elf32-avr

Sections:
Idx Name          Size      VMA       LMA       File off  Algn
  0 .text         000001c6  00000000  00000000  00000054  2**1
                  CONTENTS, ALLOC, LOAD, READONLY, CODE
  1 .debug_aranges 00000020  00000000  00000000  0000021a  2**0
                  CONTENTS, READONLY, DEBUGGING
  2 .debug_pubnames 0000001b  00000000  00000000  0000023a  2**0
                  CONTENTS, READONLY, DEBUGGING
  3 .debug_info   000002c9  00000000  00000000  00000255  2**0
                  CONTENTS, READONLY, DEBUGGING
  4 .debug_abbrev 000000ea  00000000  00000000  0000051e  2**0
                  CONTENTS, READONLY, DEBUGGING
  5 .debug_line   00000262  00000000  00000000  00000608  2**0
                  CONTENTS, READONLY, DEBUGGING
  6 .debug_frame  00000020  00000000  00000000  0000086c  2**2
                  CONTENTS, READONLY, DEBUGGING
  7 .debug_str    000000ae  00000000  00000000  0000088c  2**0
                  CONTENTS, READONLY, DEBUGGING
  8 .debug_loc    00000170  00000000  00000000  0000093a  2**0
                  CONTENTS, READONLY, DEBUGGING
  9 .debug_ranges 00000048  00000000  00000000  00000aaa  2**0
                  CONTENTS, READONLY, DEBUGGING

Disassembly of section .text:

00000000 <__vectors>:
   0:	0c 94 72 00 	jmp	0xe4	; 0xe4 <__ctors_end>
   4:	0c 94 8b 00 	jmp	0x116	; 0x116 <__bad_interrupt>
   8:	0c 94 8b 00 	jmp	0x116	; 0x116 <__bad_interrupt>
   c:	0c 94 8b 00 	jmp	0x116	; 0x116 <__bad_interrupt>
  10:	0c 94 8b 00 	jmp	0x116	; 0x116 <__bad_interrupt>
  14:	0c 94 8b 00 	jmp	0x116	; 0x116 <__bad_interrupt>
  18:	0c 94 8b 00 	jmp	0x116	; 0x116 <__bad_interrupt>
  1c:	0c 94 8b 00 	jmp	0x116	; 0x116 <__bad_interrupt>
  20:	0c 94 8b 00 	jmp	0x116	; 0x116 <__bad_interrupt>
  24:	0c 94 8b 00 	jmp	0x116	; 0x116 <__bad_interrupt>
  28:	0c 94 8b 00 	jmp	0x116	; 0x116 <__bad_interrupt>
  2c:	0c 94 8b 00 	jmp	0x116	; 0x116 <__bad_interrupt>
  30:	0c 94 8b 00 	jmp	0x116	; 0x116 <__bad_interrupt>
  34:	0c 94 8b 00 	jmp	0x116	; 0x116 <__bad_interrupt>
  38:	0c 94 8b 00 	jmp	0x116	; 0x116 <__bad_interrupt>
  3c:	0c 94 8b 00 	jmp	0x116	; 0x116 <__bad_interrupt>
  40:	0c 94 8b 00 	jmp	0x116	; 0x116 <__bad_interrupt>
  44:	0c 94 8b 00 	jmp	0x116	; 0x116 <__bad_interrupt>
  48:	0c 94 8b 00 	jmp	0x116	; 0x116 <__bad_interrupt>
  4c:	0c 94 8b 00 	jmp	0x116	; 0x116 <__bad_interrupt>
  50:	0c 94 8b 00 	jmp	0x116	; 0x116 <__bad_interrupt>
  54:	0c 94 8b 00 	jmp	0x116	; 0x116 <__bad_interrupt>
  58:	0c 94 8b 00 	jmp	0x116	; 0x116 <__bad_interrupt>
  5c:	0c 94 8b 00 	jmp	0x116	; 0x116 <__bad_interrupt>
  60:	0c 94 8b 00 	jmp	0x116	; 0x116 <__bad_interrupt>
  64:	0c 94 8b 00 	jmp	0x116	; 0x116 <__bad_interrupt>
  68:	0c 94 8b 00 	jmp	0x116	; 0x116 <__bad_interrupt>
  6c:	0c 94 8b 00 	jmp	0x116	; 0x116 <__bad_interrupt>
  70:	0c 94 8b 00 	jmp	0x116	; 0x116 <__bad_interrupt>
  74:	0c 94 8b 00 	jmp	0x116	; 0x116 <__bad_interrupt>
  78:	0c 94 8b 00 	jmp	0x116	; 0x116 <__bad_interrupt>
  7c:	0c 94 8b 00 	jmp	0x116	; 0x116 <__bad_interrupt>
  80:	0c 94 8b 00 	jmp	0x116	; 0x116 <__bad_interrupt>
  84:	0c 94 8b 00 	jmp	0x116	; 0x116 <__bad_interrupt>
  88:	0c 94 8b 00 	jmp	0x116	; 0x116 <__bad_interrupt>
  8c:	0c 94 8b 00 	jmp	0x116	; 0x116 <__bad_interrupt>
  90:	0c 94 8b 00 	jmp	0x116	; 0x116 <__bad_interrupt>
  94:	0c 94 8b 00 	jmp	0x116	; 0x116 <__bad_interrupt>
  98:	0c 94 8b 00 	jmp	0x116	; 0x116 <__bad_interrupt>
  9c:	0c 94 8b 00 	jmp	0x116	; 0x116 <__bad_interrupt>
  a0:	0c 94 8b 00 	jmp	0x116	; 0x116 <__bad_interrupt>
  a4:	0c 94 8b 00 	jmp	0x116	; 0x116 <__bad_interrupt>
  a8:	0c 94 8b 00 	jmp	0x116	; 0x116 <__bad_interrupt>
  ac:	0c 94 8b 00 	jmp	0x116	; 0x116 <__bad_interrupt>
  b0:	0c 94 8b 00 	jmp	0x116	; 0x116 <__bad_interrupt>
  b4:	0c 94 8b 00 	jmp	0x116	; 0x116 <__bad_interrupt>
  b8:	0c 94 8b 00 	jmp	0x116	; 0x116 <__bad_interrupt>
  bc:	0c 94 8b 00 	jmp	0x116	; 0x116 <__bad_interrupt>
  c0:	0c 94 8b 00 	jmp	0x116	; 0x116 <__bad_interrupt>
  c4:	0c 94 8b 00 	jmp	0x116	; 0x116 <__bad_interrupt>
  c8:	0c 94 8b 00 	jmp	0x116	; 0x116 <__bad_interrupt>
  cc:	0c 94 8b 00 	jmp	0x116	; 0x116 <__bad_interrupt>
  d0:	0c 94 8b 00 	jmp	0x116	; 0x116 <__bad_interrupt>
  d4:	0c 94 8b 00 	jmp	0x116	; 0x116 <__bad_interrupt>
  d8:	0c 94 8b 00 	jmp	0x116	; 0x116 <__bad_interrupt>
  dc:	0c 94 8b 00 	jmp	0x116	; 0x116 <__bad_interrupt>
  e0:	0c 94 8b 00 	jmp	0x116	; 0x116 <__bad_interrupt>

000000e4 <__ctors_end>:
  e4:	11 24       	eor	r1, r1
  e6:	1f be       	out	0x3f, r1	; 63
  e8:	cf ef       	ldi	r28, 0xFF	; 255
  ea:	d1 e2       	ldi	r29, 0x21	; 33
  ec:	de bf       	out	0x3e, r29	; 62
  ee:	cd bf       	out	0x3d, r28	; 61
  f0:	00 e0       	ldi	r16, 0x00	; 0
  f2:	0c bf       	out	0x3c, r16	; 60

000000f4 <__do_copy_data>:
  f4:	12 e0       	ldi	r17, 0x02	; 2
  f6:	a0 e0       	ldi	r26, 0x00	; 0
  f8:	b2 e0       	ldi	r27, 0x02	; 2
  fa:	e6 ec       	ldi	r30, 0xC6	; 198
  fc:	f1 e0       	ldi	r31, 0x01	; 1
  fe:	00 e0       	ldi	r16, 0x00	; 0
 100:	0b bf       	out	0x3b, r16	; 59
 102:	02 c0       	rjmp	.+4      	; 0x108 <__do_copy_data+0x14>
 104:	07 90       	elpm	r0, Z+
 106:	0d 92       	st	X+, r0
 108:	a0 30       	cpi	r26, 0x00	; 0
 10a:	b1 07       	cpc	r27, r17
 10c:	d9 f7       	brne	.-10     	; 0x104 <__do_copy_data+0x10>
 10e:	0e 94 8d 00 	call	0x11a	; 0x11a <main>
 112:	0c 94 e1 00 	jmp	0x1c2	; 0x1c2 <_exit>

00000116 <__bad_interrupt>:
 116:	0c 94 00 00 	jmp	0	; 0x0 <__vectors>

0000011a <main>:
 * Pin 52 Port B: bit 1 (PB1)
*/
int main (void)
{
  /* set PORTL and PORTB for output*/
  DDRL = 0xFF;
 11a:	8f ef       	ldi	r24, 0xFF	; 255
 11c:	80 93 0a 01 	sts	0x010A, r24
  DDRB = 0xFF;
 120:	84 b9       	out	0x04, r24	; 4
		{
			turn the current led off, turn the next led on; //wrap around with around 1 second delay;
			
		}
  */
	PORTL = 0x80;
 122:	80 e8       	ldi	r24, 0x80	; 128
 124:	80 93 0b 01 	sts	0x010B, r24
	PORTB = 0x00;
 128:	15 b8       	out	0x05, r1	; 5
 12a:	80 e1       	ldi	r24, 0x10	; 16
 12c:	97 e2       	ldi	r25, 0x27	; 39
    milliseconds can be achieved.
 */
void
_delay_loop_2(uint16_t __count)
{
	__asm__ volatile (
 12e:	20 e9       	ldi	r18, 0x90	; 144
 130:	31 e0       	ldi	r19, 0x01	; 1
 132:	f9 01       	movw	r30, r18
 134:	31 97       	sbiw	r30, 0x01	; 1
 136:	f1 f7       	brne	.-4      	; 0x134 <main+0x1a>
		__ticks = (uint16_t) (__ms * 10.0);
		while(__ticks)
		{
			// wait 1/10 ms
			_delay_loop_2(((F_CPU) / 4e3) / 10);
			__ticks --;
 138:	01 97       	sbiw	r24, 0x01	; 1
		__ticks = 1;
	else if (__tmp > 65535)
	{
		//	__ticks = requested delay in 1/10 ms
		__ticks = (uint16_t) (__ms * 10.0);
		while(__ticks)
 13a:	d9 f7       	brne	.-10     	; 0x132 <main+0x18>
	_delay_ms(1000);

	for(;;){
		PORTL = 0x20;
 13c:	70 e2       	ldi	r23, 0x20	; 32
 13e:	20 e9       	ldi	r18, 0x90	; 144
 140:	31 e0       	ldi	r19, 0x01	; 1
		PORTB = 0x00;
		_delay_ms(1000);

		PORTL = 0x08;
 142:	58 e0       	ldi	r21, 0x08	; 8
		PORTB = 0x00;
		_delay_ms(1000);

		PORTL = 0x02;
 144:	42 e0       	ldi	r20, 0x02	; 2

		PORTL = 0x00;
		PORTB = 0x02;
		_delay_ms(1000);

		PORTL = 0x80;
 146:	60 e8       	ldi	r22, 0x80	; 128
	PORTL = 0x80;
	PORTB = 0x00;
	_delay_ms(1000);

	for(;;){
		PORTL = 0x20;
 148:	70 93 0b 01 	sts	0x010B, r23
		PORTB = 0x00;
 14c:	15 b8       	out	0x05, r1	; 5
 14e:	80 e1       	ldi	r24, 0x10	; 16
 150:	97 e2       	ldi	r25, 0x27	; 39
 152:	f9 01       	movw	r30, r18
 154:	31 97       	sbiw	r30, 0x01	; 1
 156:	f1 f7       	brne	.-4      	; 0x154 <main+0x3a>
		{
			// wait 1/10 ms
			_delay_loop_2(((F_CPU) / 4e3) / 10);
			__ticks --;
 158:	01 97       	sbiw	r24, 0x01	; 1
		__ticks = 1;
	else if (__tmp > 65535)
	{
		//	__ticks = requested delay in 1/10 ms
		__ticks = (uint16_t) (__ms * 10.0);
		while(__ticks)
 15a:	d9 f7       	brne	.-10     	; 0x152 <main+0x38>
		_delay_ms(1000);

		PORTL = 0x08;
 15c:	50 93 0b 01 	sts	0x010B, r21
		PORTB = 0x00;
 160:	15 b8       	out	0x05, r1	; 5
 162:	80 e1       	ldi	r24, 0x10	; 16
 164:	97 e2       	ldi	r25, 0x27	; 39
 166:	f9 01       	movw	r30, r18
 168:	31 97       	sbiw	r30, 0x01	; 1
 16a:	f1 f7       	brne	.-4      	; 0x168 <main+0x4e>
		{
			// wait 1/10 ms
			_delay_loop_2(((F_CPU) / 4e3) / 10);
			__ticks --;
 16c:	01 97       	sbiw	r24, 0x01	; 1
		__ticks = 1;
	else if (__tmp > 65535)
	{
		//	__ticks = requested delay in 1/10 ms
		__ticks = (uint16_t) (__ms * 10.0);
		while(__ticks)
 16e:	d9 f7       	brne	.-10     	; 0x166 <main+0x4c>
		_delay_ms(1000);

		PORTL = 0x02;
 170:	40 93 0b 01 	sts	0x010B, r20
		PORTB = 0x00;
 174:	15 b8       	out	0x05, r1	; 5
 176:	80 e1       	ldi	r24, 0x10	; 16
 178:	97 e2       	ldi	r25, 0x27	; 39
 17a:	f9 01       	movw	r30, r18
 17c:	31 97       	sbiw	r30, 0x01	; 1
 17e:	f1 f7       	brne	.-4      	; 0x17c <main+0x62>
		{
			// wait 1/10 ms
			_delay_loop_2(((F_CPU) / 4e3) / 10);
			__ticks --;
 180:	01 97       	sbiw	r24, 0x01	; 1
		__ticks = 1;
	else if (__tmp > 65535)
	{
		//	__ticks = requested delay in 1/10 ms
		__ticks = (uint16_t) (__ms * 10.0);
		while(__ticks)
 182:	d9 f7       	brne	.-10     	; 0x17a <main+0x60>
		_delay_ms(1000);

		PORTL = 0x00;
 184:	10 92 0b 01 	sts	0x010B, r1
		PORTB = 0x08;
 188:	55 b9       	out	0x05, r21	; 5
 18a:	80 e1       	ldi	r24, 0x10	; 16
 18c:	97 e2       	ldi	r25, 0x27	; 39
 18e:	f9 01       	movw	r30, r18
 190:	31 97       	sbiw	r30, 0x01	; 1
 192:	f1 f7       	brne	.-4      	; 0x190 <main+0x76>
		{
			// wait 1/10 ms
			_delay_loop_2(((F_CPU) / 4e3) / 10);
			__ticks --;
 194:	01 97       	sbiw	r24, 0x01	; 1
		__ticks = 1;
	else if (__tmp > 65535)
	{
		//	__ticks = requested delay in 1/10 ms
		__ticks = (uint16_t) (__ms * 10.0);
		while(__ticks)
 196:	d9 f7       	brne	.-10     	; 0x18e <main+0x74>
		_delay_ms(1000);

		PORTL = 0x00;
 198:	10 92 0b 01 	sts	0x010B, r1
		PORTB = 0x02;
 19c:	45 b9       	out	0x05, r20	; 5
 19e:	80 e1       	ldi	r24, 0x10	; 16
 1a0:	97 e2       	ldi	r25, 0x27	; 39
 1a2:	f9 01       	movw	r30, r18
 1a4:	31 97       	sbiw	r30, 0x01	; 1
 1a6:	f1 f7       	brne	.-4      	; 0x1a4 <main+0x8a>
		{
			// wait 1/10 ms
			_delay_loop_2(((F_CPU) / 4e3) / 10);
			__ticks --;
 1a8:	01 97       	sbiw	r24, 0x01	; 1
		__ticks = 1;
	else if (__tmp > 65535)
	{
		//	__ticks = requested delay in 1/10 ms
		__ticks = (uint16_t) (__ms * 10.0);
		while(__ticks)
 1aa:	d9 f7       	brne	.-10     	; 0x1a2 <main+0x88>
		_delay_ms(1000);

		PORTL = 0x80;
 1ac:	60 93 0b 01 	sts	0x010B, r22
		PORTB = 0x00;
 1b0:	15 b8       	out	0x05, r1	; 5
 1b2:	80 e1       	ldi	r24, 0x10	; 16
 1b4:	97 e2       	ldi	r25, 0x27	; 39
 1b6:	f9 01       	movw	r30, r18
 1b8:	31 97       	sbiw	r30, 0x01	; 1
 1ba:	f1 f7       	brne	.-4      	; 0x1b8 <main+0x9e>
		{
			// wait 1/10 ms
			_delay_loop_2(((F_CPU) / 4e3) / 10);
			__ticks --;
 1bc:	01 97       	sbiw	r24, 0x01	; 1
		__ticks = 1;
	else if (__tmp > 65535)
	{
		//	__ticks = requested delay in 1/10 ms
		__ticks = (uint16_t) (__ms * 10.0);
		while(__ticks)
 1be:	d9 f7       	brne	.-10     	; 0x1b6 <main+0x9c>
 1c0:	c3 cf       	rjmp	.-122    	; 0x148 <main+0x2e>

000001c2 <_exit>:
 1c2:	f8 94       	cli

000001c4 <__stop_program>:
 1c4:	ff cf       	rjmp	.-2      	; 0x1c4 <__stop_program>
